target datalayout = "e-m:e-p270:32:32-p271:32:32-p272:64:64-i64:64-i128:128-f80:128-n8:16:32:64-S128"
target triple = "x86_64-pc-linux-gnu"

%struct.lean_object = type { i32, i32 }

; Function Attrs: alwaysinline nounwind uwtable
define internal void @lean_dec_ref(ptr noundef %0) #1 {
  %2 = alloca ptr, align 8
  store ptr %0, ptr %2, align 8, !tbaa !4
  %3 = load ptr, ptr %2, align 8, !tbaa !4
  %4 = getelementptr inbounds nuw %struct.lean_object, ptr %3, i32 0, i32 0
  %5 = load i32, ptr %4, align 4, !tbaa !15
  %6 = icmp sgt i32 %5, 1
  %7 = zext i1 %6 to i32
  %8 = sext i32 %7 to i64
  %9 = call i64 @llvm.expect.i64(i64 %8, i64 1)
  %10 = icmp ne i64 %9, 0
  br i1 %10, label %11, label %16

11:                                               ; preds = %1
  %12 = load ptr, ptr %2, align 8, !tbaa !4
  %13 = getelementptr inbounds nuw %struct.lean_object, ptr %12, i32 0, i32 0
  %14 = load i32, ptr %13, align 4, !tbaa !15
  %15 = add i32 %14, -1
  store i32 %15, ptr %13, align 4, !tbaa !15
  br label %24

16:                                               ; preds = %1
  %17 = load ptr, ptr %2, align 8, !tbaa !4
  %18 = getelementptr inbounds nuw %struct.lean_object, ptr %17, i32 0, i32 0
  %19 = load i32, ptr %18, align 4, !tbaa !15
  %20 = icmp ne i32 %19, 0
  br i1 %20, label %21, label %23

21:                                               ; preds = %16
  %22 = load ptr, ptr %2, align 8, !tbaa !4
  call void @lean_dec_ref_cold(ptr noundef %22)
  br label %23

23:                                               ; preds = %21, %16
  br label %24

24:                                               ; preds = %23, %11
  ret void
}

; Function Attrs: alwaysinline nounwind uwtable
define internal zeroext i1 @lean_is_scalar(ptr noundef %0) #1 {
  %2 = alloca ptr, align 8
  store ptr %0, ptr %2, align 8, !tbaa !4
  %3 = load ptr, ptr %2, align 8, !tbaa !4
  %4 = ptrtoint ptr %3 to i64
  %5 = and i64 %4, 1
  %6 = icmp eq i64 %5, 1
  ret i1 %6
}

; Function Attrs: alwaysinline nounwind uwtable
define internal void @lean_dec(ptr noundef %0) #1 {
  %2 = alloca ptr, align 8
  store ptr %0, ptr %2, align 8, !tbaa !4
  %3 = load ptr, ptr %2, align 8, !tbaa !4
  %4 = call zeroext i1 @lean_is_scalar(ptr noundef %3)
  br i1 %4, label %7, label %5

5:                                                ; preds = %1
  %6 = load ptr, ptr %2, align 8, !tbaa !4
  call void @lean_dec_ref(ptr noundef %6)
  br label %7

7:                                                ; preds = %5, %1
  ret void
}

; Function Attrs: inlinehint nounwind uwtable
define internal i64 @lean_unbox(ptr noundef %0) #0 {
  %2 = alloca ptr, align 8
  store ptr %0, ptr %2, align 8, !tbaa !4
  %3 = load ptr, ptr %2, align 8, !tbaa !4
  %4 = ptrtoint ptr %3 to i64
  %5 = lshr i64 %4, 1
  ret i64 %5
}

; Function Attrs: nounwind uwtable
define ptr @l_List_forIn_x27_loop___at___private_Lean_Meta_Tactic_Grind_EMatch_0__Lean_Meta_Grind_EMatch_main___spec__1___boxed(ptr noundef %0) #2 {
  %2 = alloca ptr, align 8
  %3 = alloca ptr, align 8
  %4 = alloca ptr, align 8
  %5 = alloca ptr, align 8
  %6 = alloca ptr, align 8
  %7 = alloca ptr, align 8
  %8 = alloca ptr, align 8
  %9 = alloca ptr, align 8
  %10 = alloca ptr, align 8
  %11 = alloca ptr, align 8
  %12 = alloca ptr, align 8
  %13 = alloca ptr, align 8
  %14 = alloca ptr, align 8
  %15 = alloca ptr, align 8
  %16 = alloca ptr, align 8
  %17 = alloca ptr, align 8
  %18 = alloca ptr, align 8
  %19 = alloca ptr, align 8
  %20 = alloca ptr, align 8
  %21 = alloca ptr, align 8
  %22 = alloca ptr, align 8
  %23 = alloca ptr, align 8
  %24 = alloca ptr, align 8
  %25 = alloca ptr, align 8
  %26 = alloca i8, align 1
  %27 = alloca ptr, align 8
  store ptr %0, ptr %2, align 8, !tbaa !10
  call void @llvm.lifetime.start.p0(i64 8, ptr %3) #8
  %28 = load ptr, ptr %2, align 8, !tbaa !10
  %29 = getelementptr inbounds ptr, ptr %28, i64 0
  %30 = load ptr, ptr %29, align 8, !tbaa !4
  store ptr %30, ptr %3, align 8, !tbaa !4
  call void @llvm.lifetime.start.p0(i64 8, ptr %4) #8
  %31 = load ptr, ptr %2, align 8, !tbaa !10
  %32 = getelementptr inbounds ptr, ptr %31, i64 1
  %33 = load ptr, ptr %32, align 8, !tbaa !4
  store ptr %33, ptr %4, align 8, !tbaa !4
  call void @llvm.lifetime.start.p0(i64 8, ptr %5) #8
  %34 = load ptr, ptr %2, align 8, !tbaa !10
  %35 = getelementptr inbounds ptr, ptr %34, i64 2
  %36 = load ptr, ptr %35, align 8, !tbaa !4
  store ptr %36, ptr %5, align 8, !tbaa !4
  call void @llvm.lifetime.start.p0(i64 8, ptr %6) #8
  %37 = load ptr, ptr %2, align 8, !tbaa !10
  %38 = getelementptr inbounds ptr, ptr %37, i64 3
  %39 = load ptr, ptr %38, align 8, !tbaa !4
  store ptr %39, ptr %6, align 8, !tbaa !4
  call void @llvm.lifetime.start.p0(i64 8, ptr %7) #8
  %40 = load ptr, ptr %2, align 8, !tbaa !10
  %41 = getelementptr inbounds ptr, ptr %40, i64 4
  %42 = load ptr, ptr %41, align 8, !tbaa !4
  store ptr %42, ptr %7, align 8, !tbaa !4
  call void @llvm.lifetime.start.p0(i64 8, ptr %8) #8
  %43 = load ptr, ptr %2, align 8, !tbaa !10
  %44 = getelementptr inbounds ptr, ptr %43, i64 5
  %45 = load ptr, ptr %44, align 8, !tbaa !4
  store ptr %45, ptr %8, align 8, !tbaa !4
  call void @llvm.lifetime.start.p0(i64 8, ptr %9) #8
  %46 = load ptr, ptr %2, align 8, !tbaa !10
  %47 = getelementptr inbounds ptr, ptr %46, i64 6
  %48 = load ptr, ptr %47, align 8, !tbaa !4
  store ptr %48, ptr %9, align 8, !tbaa !4
  call void @llvm.lifetime.start.p0(i64 8, ptr %10) #8
  %49 = load ptr, ptr %2, align 8, !tbaa !10
  %50 = getelementptr inbounds ptr, ptr %49, i64 7
  %51 = load ptr, ptr %50, align 8, !tbaa !4
  store ptr %51, ptr %10, align 8, !tbaa !4
  call void @llvm.lifetime.start.p0(i64 8, ptr %11) #8
  %52 = load ptr, ptr %2, align 8, !tbaa !10
  %53 = getelementptr inbounds ptr, ptr %52, i64 8
  %54 = load ptr, ptr %53, align 8, !tbaa !4
  store ptr %54, ptr %11, align 8, !tbaa !4
  call void @llvm.lifetime.start.p0(i64 8, ptr %12) #8
  %55 = load ptr, ptr %2, align 8, !tbaa !10
  %56 = getelementptr inbounds ptr, ptr %55, i64 9
  %57 = load ptr, ptr %56, align 8, !tbaa !4
  store ptr %57, ptr %12, align 8, !tbaa !4
  call void @llvm.lifetime.start.p0(i64 8, ptr %13) #8
  %58 = load ptr, ptr %2, align 8, !tbaa !10
  %59 = getelementptr inbounds ptr, ptr %58, i64 10
  %60 = load ptr, ptr %59, align 8, !tbaa !4
  store ptr %60, ptr %13, align 8, !tbaa !4
  call void @llvm.lifetime.start.p0(i64 8, ptr %14) #8
  %61 = load ptr, ptr %2, align 8, !tbaa !10
  %62 = getelementptr inbounds ptr, ptr %61, i64 11
  %63 = load ptr, ptr %62, align 8, !tbaa !4
  store ptr %63, ptr %14, align 8, !tbaa !4
  call void @llvm.lifetime.start.p0(i64 8, ptr %15) #8
  %64 = load ptr, ptr %2, align 8, !tbaa !10
  %65 = getelementptr inbounds ptr, ptr %64, i64 12
  %66 = load ptr, ptr %65, align 8, !tbaa !4
  store ptr %66, ptr %15, align 8, !tbaa !4
  call void @llvm.lifetime.start.p0(i64 8, ptr %16) #8
  %67 = load ptr, ptr %2, align 8, !tbaa !10
  %68 = getelementptr inbounds ptr, ptr %67, i64 13
  %69 = load ptr, ptr %68, align 8, !tbaa !4
  store ptr %69, ptr %16, align 8, !tbaa !4
  call void @llvm.lifetime.start.p0(i64 8, ptr %17) #8
  %70 = load ptr, ptr %2, align 8, !tbaa !10
  %71 = getelementptr inbounds ptr, ptr %70, i64 14
  %72 = load ptr, ptr %71, align 8, !tbaa !4
  store ptr %72, ptr %17, align 8, !tbaa !4
  call void @llvm.lifetime.start.p0(i64 8, ptr %18) #8
  %73 = load ptr, ptr %2, align 8, !tbaa !10
  %74 = getelementptr inbounds ptr, ptr %73, i64 15
  %75 = load ptr, ptr %74, align 8, !tbaa !4
  store ptr %75, ptr %18, align 8, !tbaa !4
  call void @llvm.lifetime.start.p0(i64 8, ptr %19) #8
  %76 = load ptr, ptr %2, align 8, !tbaa !10
  %77 = getelementptr inbounds ptr, ptr %76, i64 16
  %78 = load ptr, ptr %77, align 8, !tbaa !4
  store ptr %78, ptr %19, align 8, !tbaa !4
  call void @llvm.lifetime.start.p0(i64 8, ptr %20) #8
  %79 = load ptr, ptr %2, align 8, !tbaa !10
  %80 = getelementptr inbounds ptr, ptr %79, i64 17
  %81 = load ptr, ptr %80, align 8, !tbaa !4
  store ptr %81, ptr %20, align 8, !tbaa !4
  call void @llvm.lifetime.start.p0(i64 8, ptr %21) #8
  %82 = load ptr, ptr %2, align 8, !tbaa !10
  %83 = getelementptr inbounds ptr, ptr %82, i64 18
  %84 = load ptr, ptr %83, align 8, !tbaa !4
  store ptr %84, ptr %21, align 8, !tbaa !4
  call void @llvm.lifetime.start.p0(i64 8, ptr %22) #8
  %85 = load ptr, ptr %2, align 8, !tbaa !10
  %86 = getelementptr inbounds ptr, ptr %85, i64 19
  %87 = load ptr, ptr %86, align 8, !tbaa !4
  store ptr %87, ptr %22, align 8, !tbaa !4
  call void @llvm.lifetime.start.p0(i64 8, ptr %23) #8
  %88 = load ptr, ptr %2, align 8, !tbaa !10
  %89 = getelementptr inbounds ptr, ptr %88, i64 20
  %90 = load ptr, ptr %89, align 8, !tbaa !4
  store ptr %90, ptr %23, align 8, !tbaa !4
  call void @llvm.lifetime.start.p0(i64 8, ptr %24) #8
  %91 = load ptr, ptr %2, align 8, !tbaa !10
  %92 = getelementptr inbounds ptr, ptr %91, i64 21
  %93 = load ptr, ptr %92, align 8, !tbaa !4
  store ptr %93, ptr %24, align 8, !tbaa !4
  call void @llvm.lifetime.start.p0(i64 8, ptr %25) #8
  %94 = load ptr, ptr %2, align 8, !tbaa !10
  %95 = getelementptr inbounds ptr, ptr %94, i64 22
  %96 = load ptr, ptr %95, align 8, !tbaa !4
  store ptr %96, ptr %25, align 8, !tbaa !4
  br label %97

97:                                               ; preds = %1
  call void @llvm.lifetime.start.p0(i64 1, ptr %26) #8
  call void @llvm.lifetime.start.p0(i64 8, ptr %27) #8
  %98 = load ptr, ptr %7, align 8, !tbaa !4
  %99 = call i64 @lean_unbox(ptr noundef %98)
  %100 = trunc i64 %99 to i8
  store i8 %100, ptr %26, align 1, !tbaa !12
  %101 = load ptr, ptr %7, align 8, !tbaa !4
  call void @lean_dec(ptr noundef %101)
  %102 = load ptr, ptr %3, align 8, !tbaa !4
  %103 = load ptr, ptr %4, align 8, !tbaa !4
  %104 = load ptr, ptr %5, align 8, !tbaa !4
  %105 = load ptr, ptr %6, align 8, !tbaa !4
  %106 = load i8, ptr %26, align 1, !tbaa !12
  %107 = load ptr, ptr %8, align 8, !tbaa !4
  %108 = load ptr, ptr %9, align 8, !tbaa !4
  %109 = load ptr, ptr %10, align 8, !tbaa !4
  %110 = load ptr, ptr %11, align 8, !tbaa !4
  %111 = load ptr, ptr %12, align 8, !tbaa !4
  %112 = load ptr, ptr %13, align 8, !tbaa !4
  %113 = load ptr, ptr %14, align 8, !tbaa !4
  %114 = load ptr, ptr %15, align 8, !tbaa !4
  %115 = load ptr, ptr %16, align 8, !tbaa !4
  %116 = load ptr, ptr %17, align 8, !tbaa !4
  %117 = load ptr, ptr %18, align 8, !tbaa !4
  %118 = load ptr, ptr %19, align 8, !tbaa !4
  %119 = load ptr, ptr %20, align 8, !tbaa !4
  %120 = load ptr, ptr %21, align 8, !tbaa !4
  %121 = load ptr, ptr %22, align 8, !tbaa !4
  %122 = load ptr, ptr %23, align 8, !tbaa !4
  %123 = load ptr, ptr %24, align 8, !tbaa !4
  %124 = load ptr, ptr %25, align 8, !tbaa !4
  %125 = call ptr @l_List_forIn_x27_loop___at___private_Lean_Meta_Tactic_Grind_EMatch_0__Lean_Meta_Grind_EMatch_main___spec__1(ptr noundef %102, ptr noundef %103, ptr noundef %104, ptr noundef %105, i8 noundef zeroext %106, ptr noundef %107, ptr noundef %108, ptr noundef %109, ptr noundef %110, ptr noundef %111, ptr noundef %112, ptr noundef %113, ptr noundef %114, ptr noundef %115, ptr noundef %116, ptr noundef %117, ptr noundef %118, ptr noundef %119, ptr noundef %120, ptr noundef %121, ptr noundef %122, ptr noundef %123, ptr noundef %124)
  store ptr %125, ptr %27, align 8, !tbaa !4
  %126 = load ptr, ptr %11, align 8, !tbaa !4
  call void @lean_dec(ptr noundef %126)
  %127 = load ptr, ptr %9, align 8, !tbaa !4
  call void @lean_dec(ptr noundef %127)
  %128 = load ptr, ptr %8, align 8, !tbaa !4
  call void @lean_dec(ptr noundef %128)
  %129 = load ptr, ptr %5, align 8, !tbaa !4
  call void @lean_dec(ptr noundef %129)
  %130 = load ptr, ptr %3, align 8, !tbaa !4
  call void @lean_dec(ptr noundef %130)
  %131 = load ptr, ptr %27, align 8, !tbaa !4
  call void @llvm.lifetime.end.p0(i64 8, ptr %27) #8
  call void @llvm.lifetime.end.p0(i64 1, ptr %26) #8
  call void @llvm.lifetime.end.p0(i64 8, ptr %25) #8
  call void @llvm.lifetime.end.p0(i64 8, ptr %24) #8
  call void @llvm.lifetime.end.p0(i64 8, ptr %23) #8
  call void @llvm.lifetime.end.p0(i64 8, ptr %22) #8
  call void @llvm.lifetime.end.p0(i64 8, ptr %21) #8
  call void @llvm.lifetime.end.p0(i64 8, ptr %20) #8
  call void @llvm.lifetime.end.p0(i64 8, ptr %19) #8
  call void @llvm.lifetime.end.p0(i64 8, ptr %18) #8
  call void @llvm.lifetime.end.p0(i64 8, ptr %17) #8
  call void @llvm.lifetime.end.p0(i64 8, ptr %16) #8
  call void @llvm.lifetime.end.p0(i64 8, ptr %15) #8
  call void @llvm.lifetime.end.p0(i64 8, ptr %14) #8
  call void @llvm.lifetime.end.p0(i64 8, ptr %13) #8
  call void @llvm.lifetime.end.p0(i64 8, ptr %12) #8
  call void @llvm.lifetime.end.p0(i64 8, ptr %11) #8
  call void @llvm.lifetime.end.p0(i64 8, ptr %10) #8
  call void @llvm.lifetime.end.p0(i64 8, ptr %9) #8
  call void @llvm.lifetime.end.p0(i64 8, ptr %8) #8
  call void @llvm.lifetime.end.p0(i64 8, ptr %7) #8
  call void @llvm.lifetime.end.p0(i64 8, ptr %6) #8
  call void @llvm.lifetime.end.p0(i64 8, ptr %5) #8
  call void @llvm.lifetime.end.p0(i64 8, ptr %4) #8
  call void @llvm.lifetime.end.p0(i64 8, ptr %3) #8
  ret ptr %131
}