; Function Attrs: nounwind uwtable
define ptr @l_List_forIn_x27_loop___at___private_Lean_Meta_Tactic_Grind_EMatch_0__Lean_Meta_Grind_EMatch_main___spec__1___boxed(ptr noundef readonly captures(none) %0) local_unnamed_addr #0 {
  %2 = load ptr, ptr %0, align 8, !tbaa !4
  %3 = getelementptr inbounds nuw i8, ptr %0, i64 8
  %4 = load ptr, ptr %3, align 8, !tbaa !4
  %5 = getelementptr inbounds nuw i8, ptr %0, i64 16
  %6 = load ptr, ptr %5, align 8, !tbaa !4
  %7 = getelementptr inbounds nuw i8, ptr %0, i64 24
  %8 = load ptr, ptr %7, align 8, !tbaa !4
  %9 = getelementptr inbounds nuw i8, ptr %0, i64 32
  %10 = load ptr, ptr %9, align 8, !tbaa !4
  %11 = getelementptr inbounds nuw i8, ptr %0, i64 40
  %12 = load ptr, ptr %11, align 8, !tbaa !4
  %13 = getelementptr inbounds nuw i8, ptr %0, i64 48
  %14 = load ptr, ptr %13, align 8, !tbaa !4
  %15 = getelementptr inbounds nuw i8, ptr %0, i64 56
  %16 = load ptr, ptr %15, align 8, !tbaa !4
  %17 = getelementptr inbounds nuw i8, ptr %0, i64 64
  %18 = load ptr, ptr %17, align 8, !tbaa !4
  %19 = getelementptr inbounds nuw i8, ptr %0, i64 72
  %20 = load ptr, ptr %19, align 8, !tbaa !4
  %21 = getelementptr inbounds nuw i8, ptr %0, i64 80
  %22 = load ptr, ptr %21, align 8, !tbaa !4
  %23 = getelementptr inbounds nuw i8, ptr %0, i64 96
  %24 = load ptr, ptr %23, align 8, !tbaa !4
  %25 = getelementptr inbounds nuw i8, ptr %0, i64 104
  %26 = load ptr, ptr %25, align 8, !tbaa !4
  %27 = getelementptr inbounds nuw i8, ptr %0, i64 112
  %28 = load ptr, ptr %27, align 8, !tbaa !4
  %29 = getelementptr inbounds nuw i8, ptr %0, i64 120
  %30 = load ptr, ptr %29, align 8, !tbaa !4
  %31 = getelementptr inbounds nuw i8, ptr %0, i64 128
  %32 = load ptr, ptr %31, align 8, !tbaa !4
  %33 = getelementptr inbounds nuw i8, ptr %0, i64 136
  %34 = load ptr, ptr %33, align 8, !tbaa !4
  %35 = getelementptr inbounds nuw i8, ptr %0, i64 144
  %36 = load ptr, ptr %35, align 8, !tbaa !4
  %37 = getelementptr inbounds nuw i8, ptr %0, i64 152
  %38 = load ptr, ptr %37, align 8, !tbaa !4
  %39 = getelementptr inbounds nuw i8, ptr %0, i64 160
  %40 = load ptr, ptr %39, align 8, !tbaa !4
  %41 = getelementptr inbounds nuw i8, ptr %0, i64 168
  %42 = load ptr, ptr %41, align 8, !tbaa !4
  %43 = getelementptr inbounds nuw i8, ptr %0, i64 176
  %44 = load ptr, ptr %43, align 8, !tbaa !4
  %45 = ptrtoint ptr %10 to i64
  %46 = lshr i64 %45, 1
  %47 = trunc i64 %46 to i8
  %48 = and i64 %45, 1
  %.not = icmp eq i64 %48, 0
  br i1 %.not, label %49, label %lean_dec.exit57

49:                                               ; preds = %1
  %50 = load i32, ptr %10, align 4, !tbaa !8
  %51 = icmp sgt i32 %50, 1
  br i1 %51, label %52, label %54, !prof !11

52:                                               ; preds = %49
  %53 = add nsw i32 %50, -1
  store i32 %53, ptr %10, align 4, !tbaa !8
  br label %lean_dec.exit57

54:                                               ; preds = %49
  %.not.i = icmp eq i32 %50, 0
  br i1 %.not.i, label %lean_dec.exit57, label %55

55:                                               ; preds = %54
  tail call void @lean_dec_ref_cold(ptr noundef nonnull %10) #5
  br label %lean_dec.exit57

lean_dec.exit57:                                  ; preds = %55, %54, %52, %1
  %56 = tail call ptr @l_List_forIn_x27_loop___at___private_Lean_Meta_Tactic_Grind_EMatch_0__Lean_Meta_Grind_EMatch_main___spec__1(ptr noundef %2, ptr noundef %4, ptr poison, ptr noundef %8, i8 noundef zeroext %47, ptr noundef %12, ptr poison, ptr noundef %16, ptr poison, ptr noundef %20, ptr noundef %22, ptr poison, ptr noundef %24, ptr noundef %26, ptr noundef %28, ptr noundef %30, ptr noundef %32, ptr noundef %34, ptr noundef %36, ptr noundef %38, ptr noundef %40, ptr noundef %42, ptr noundef %44)
  %57 = ptrtoint ptr %18 to i64
  %58 = and i64 %57, 1
  %.not68 = icmp eq i64 %58, 0
  br i1 %.not68, label %59, label %lean_dec.exit56

59:                                               ; preds = %lean_dec.exit57
  %60 = load i32, ptr %18, align 4, !tbaa !8
  %61 = icmp sgt i32 %60, 1
  br i1 %61, label %62, label %64, !prof !11

62:                                               ; preds = %59
  %63 = add nsw i32 %60, -1
  store i32 %63, ptr %18, align 4, !tbaa !8
  br label %lean_dec.exit56

64:                                               ; preds = %59
  %.not.i58 = icmp eq i32 %60, 0
  br i1 %.not.i58, label %lean_dec.exit56, label %65

65:                                               ; preds = %64
  tail call void @lean_dec_ref_cold(ptr noundef nonnull %18) #5
  br label %lean_dec.exit56

lean_dec.exit56:                                  ; preds = %65, %64, %62, %lean_dec.exit57
  %66 = ptrtoint ptr %14 to i64
  %67 = and i64 %66, 1
  %.not69 = icmp eq i64 %67, 0
  br i1 %.not69, label %68, label %lean_dec.exit55

68:                                               ; preds = %lean_dec.exit56
  %69 = load i32, ptr %14, align 4, !tbaa !8
  %70 = icmp sgt i32 %69, 1
  br i1 %70, label %71, label %73, !prof !11

71:                                               ; preds = %68
  %72 = add nsw i32 %69, -1
  store i32 %72, ptr %14, align 4, !tbaa !8
  br label %lean_dec.exit55

73:                                               ; preds = %68
  %.not.i60 = icmp eq i32 %69, 0
  br i1 %.not.i60, label %lean_dec.exit55, label %74

74:                                               ; preds = %73
  tail call void @lean_dec_ref_cold(ptr noundef nonnull %14) #5
  br label %lean_dec.exit55

lean_dec.exit55:                                  ; preds = %74, %73, %71, %lean_dec.exit56
  %75 = ptrtoint ptr %12 to i64
  %76 = and i64 %75, 1
  %.not70 = icmp eq i64 %76, 0
  br i1 %.not70, label %77, label %lean_dec.exit54

77:                                               ; preds = %lean_dec.exit55
  %78 = load i32, ptr %12, align 4, !tbaa !8
  %79 = icmp sgt i32 %78, 1
  br i1 %79, label %80, label %82, !prof !11

80:                                               ; preds = %77
  %81 = add nsw i32 %78, -1
  store i32 %81, ptr %12, align 4, !tbaa !8
  br label %lean_dec.exit54

82:                                               ; preds = %77
  %.not.i62 = icmp eq i32 %78, 0
  br i1 %.not.i62, label %lean_dec.exit54, label %83

83:                                               ; preds = %82
  tail call void @lean_dec_ref_cold(ptr noundef nonnull %12) #5
  br label %lean_dec.exit54

lean_dec.exit54:                                  ; preds = %83, %82, %80, %lean_dec.exit55
  %84 = ptrtoint ptr %6 to i64
  %85 = and i64 %84, 1
  %.not71 = icmp eq i64 %85, 0
  br i1 %.not71, label %86, label %lean_dec.exit53

86:                                               ; preds = %lean_dec.exit54
  %87 = load i32, ptr %6, align 4, !tbaa !8
  %88 = icmp sgt i32 %87, 1
  br i1 %88, label %89, label %91, !prof !11

89:                                               ; preds = %86
  %90 = add nsw i32 %87, -1
  store i32 %90, ptr %6, align 4, !tbaa !8
  br label %lean_dec.exit53

91:                                               ; preds = %86
  %.not.i64 = icmp eq i32 %87, 0
  br i1 %.not.i64, label %lean_dec.exit53, label %92

92:                                               ; preds = %91
  tail call void @lean_dec_ref_cold(ptr noundef nonnull %6) #5
  br label %lean_dec.exit53

lean_dec.exit53:                                  ; preds = %92, %91, %89, %lean_dec.exit54
  %93 = ptrtoint ptr %2 to i64
  %94 = and i64 %93, 1
  %.not72 = icmp eq i64 %94, 0
  br i1 %.not72, label %95, label %lean_dec.exit

95:                                               ; preds = %lean_dec.exit53
  %96 = load i32, ptr %2, align 4, !tbaa !8
  %97 = icmp sgt i32 %96, 1
  br i1 %97, label %98, label %100, !prof !11

98:                                               ; preds = %95
  %99 = add nsw i32 %96, -1
  store i32 %99, ptr %2, align 4, !tbaa !8
  br label %lean_dec.exit

100:                                              ; preds = %95
  %.not.i66 = icmp eq i32 %96, 0
  br i1 %.not.i66, label %lean_dec.exit, label %101

101:                                              ; preds = %100
  tail call void @lean_dec_ref_cold(ptr noundef nonnull %2) #5
  br label %lean_dec.exit

lean_dec.exit:                                    ; preds = %101, %100, %98, %lean_dec.exit53
  ret ptr %56
}